target datalayout = "e-m:e-p270:32:32-p271:32:32-p272:64:64-i64:64-i128:128-f80:128-n8:16:32:64-S128"
target triple = "x86_64-pc-linux-gnu"

%struct._dcerpc_info = type { ptr, i32, i64, i8, i8, i8, i32, i32, i32, i32, i32, i32, i32, i32, ptr, ptr, ptr, ptr, %struct.anon }
%struct.anon = type { i8, ptr, ptr, ptr, i8 }

@.str.71 = private unnamed_addr constant [12 x i8] c"cache_info:\00", align 1
@.str.72 = private unnamed_addr constant [8 x i8] c"status:\00", align 1

; Function Attrs: null_pointer_is_valid sspstrong uwtable
define internal i32 @rs_pgo_dissect_delete_resp(ptr noundef %0, i32 noundef %1, ptr noundef %2, ptr noundef %3, ptr noundef %4, ptr noundef %5) #0 {
  %7 = alloca i32, align 4
  %8 = alloca ptr, align 8
  %9 = alloca i32, align 4
  %10 = alloca ptr, align 8
  %11 = alloca ptr, align 8
  %12 = alloca ptr, align 8
  %13 = alloca ptr, align 8
  %14 = alloca i32, align 4
  %15 = alloca i32, align 4
  store ptr %0, ptr %8, align 8
  store i32 %1, ptr %9, align 4
  store ptr %2, ptr %10, align 8
  store ptr %3, ptr %11, align 8
  store ptr %4, ptr %12, align 8
  store ptr %5, ptr %13, align 8
  call void @llvm.lifetime.start.p0(i64 4, ptr %14) #3
  %16 = load ptr, ptr %12, align 8
  %17 = getelementptr inbounds nuw %struct._dcerpc_info, ptr %16, i32 0, i32 4
  %18 = load i8, ptr %17, align 1, !range !6, !noundef !7
  %19 = trunc i8 %18 to i1
  br i1 %19, label %20, label %22

20:                                               ; preds = %6
  %21 = load i32, ptr %9, align 4
  store i32 %21, ptr %7, align 4
  store i32 1, ptr %15, align 4
  br label %45

22:                                               ; preds = %6
  %23 = load ptr, ptr %8, align 8
  %24 = load i32, ptr %9, align 4
  %25 = call i32 @tvb_captured_length_remaining(ptr noundef %23, i32 noundef %24)
  store i32 %25, ptr %14, align 4
  %26 = load i32, ptr %14, align 4
  %27 = icmp sgt i32 %26, 8
  br i1 %27, label %28, label %36

28:                                               ; preds = %22
  %29 = load ptr, ptr %8, align 8
  %30 = load i32, ptr %9, align 4
  %31 = load ptr, ptr %10, align 8
  %32 = load ptr, ptr %11, align 8
  %33 = load ptr, ptr %12, align 8
  %34 = load ptr, ptr %13, align 8
  %35 = call i32 @dissect_ndr_pointer(ptr noundef %29, i32 noundef %30, ptr noundef %31, ptr noundef %32, ptr noundef %33, ptr noundef %34, ptr noundef @dissect_rs_cache_data_t, i32 noundef 1, ptr noundef @.str.71, i32 noundef -1)
  store i32 %35, ptr %9, align 4
  br label %36

36:                                               ; preds = %28, %22
  %37 = load ptr, ptr %8, align 8
  %38 = load i32, ptr %9, align 4
  %39 = load ptr, ptr %10, align 8
  %40 = load ptr, ptr %11, align 8
  %41 = load ptr, ptr %12, align 8
  %42 = load ptr, ptr %13, align 8
  %43 = call i32 @dissect_ndr_pointer(ptr noundef %37, i32 noundef %38, ptr noundef %39, ptr noundef %40, ptr noundef %41, ptr noundef %42, ptr noundef @dissect_error_status_t, i32 noundef 1, ptr noundef @.str.72, i32 noundef -1)
  store i32 %43, ptr %9, align 4
  %44 = load i32, ptr %9, align 4
  store i32 %44, ptr %7, align 4
  store i32 1, ptr %15, align 4
  br label %45

45:                                               ; preds = %36, %20
  call void @llvm.lifetime.end.p0(i64 4, ptr %14) #3
  %46 = load i32, ptr %7, align 4
  ret i32 %46
}