; Function Attrs: null_pointer_is_valid sspstrong uwtable
define internal i32 @rs_pgo_dissect_delete_resp(ptr noundef %0, i32 noundef %1, ptr noundef %2, ptr noundef %3, ptr noundef %4, ptr noundef %5) #0 {
  %7 = getelementptr inbounds nuw i8, ptr %4, i64 25
  %8 = load i8, ptr %7, align 1, !range !6, !noundef !7
  %9 = trunc nuw i8 %8 to i1
  br i1 %9, label %17, label %10

10:                                               ; preds = %6
  %11 = tail call i32 @tvb_captured_length_remaining(ptr noundef %0, i32 noundef %1)
  %12 = icmp sgt i32 %11, 8
  br i1 %12, label %13, label %15

13:                                               ; preds = %10
  %14 = tail call i32 @dissect_ndr_pointer(ptr noundef %0, i32 noundef %1, ptr noundef %2, ptr noundef %3, ptr noundef %4, ptr noundef %5, ptr noundef nonnull @dissect_rs_cache_data_t, i32 noundef 1, ptr noundef nonnull @.str.71, i32 noundef -1)
  br label %15

15:                                               ; preds = %13, %10
  %.018 = phi i32 [ %14, %13 ], [ %1, %10 ]
  %16 = tail call i32 @dissect_ndr_pointer(ptr noundef %0, i32 noundef %.018, ptr noundef %2, ptr noundef %3, ptr noundef %4, ptr noundef %5, ptr noundef nonnull @dissect_error_status_t, i32 noundef 1, ptr noundef nonnull @.str.72, i32 noundef -1)
  br label %17

17:                                               ; preds = %6, %15
  %.0 = phi i32 [ %16, %15 ], [ %1, %6 ]
  ret i32 %.0
}